; Function Attrs: mustprogress nofree norecurse nosync nounwind willreturn memory(none) uwtable
define noundef double @_ZN2mu9ParserInt3AbsEd(double noundef %0) #2 align 2 {
  %2 = tail call double @llvm.fabs.f64(double %0)
  %3 = fcmp ord double %0, 0.000000e+00
  %4 = select i1 %3, double 5.000000e-01, double -5.000000e-01
  %5 = fadd double %2, %4
  %6 = fptosi double %5 to i32
  %7 = sitofp i32 %6 to double
  ret double %7
}